target datalayout = "e-m:e-p270:32:32-p271:32:32-p272:64:64-i64:64-i128:128-f80:128-n8:16:32:64-S128"
target triple = "x86_64-pc-linux-gnu"

%struct.evthread_lock_callbacks = type { i32, i32, ptr, ptr, ptr, ptr }
%struct.bufferevent_private = type { %struct.bufferevent, ptr, i8, i16, i16, i16, i32, i32, %struct.event_callback, i32, i32, ptr, i64, i64, ptr, %union.anon.7, ptr }
%struct.bufferevent = type { ptr, ptr, %struct.event, %struct.event, ptr, ptr, %struct.event_watermark, %struct.event_watermark, ptr, ptr, ptr, ptr, %struct.timeval, %struct.timeval, i16 }
%struct.event = type { %struct.event_callback, %union.anon.0, i32, i16, i16, ptr, %union.anon.2, %struct.timeval }
%union.anon.0 = type { %struct.anon.1 }
%struct.anon.1 = type { ptr, ptr }
%union.anon.2 = type { %struct.anon.3 }
%struct.anon.3 = type { %struct.anon.4, %struct.timeval }
%struct.anon.4 = type { ptr, ptr }
%struct.event_watermark = type { i64, i64 }
%struct.timeval = type { i64, i64 }
%struct.event_callback = type { %struct.anon, i16, i8, i8, %union.anon, ptr }
%struct.anon = type { ptr, ptr }
%union.anon = type { ptr }
%union.anon.7 = type { %struct.sockaddr_in6 }
%struct.sockaddr_in6 = type { i16, i16, i32, %struct.in6_addr, i32 }
%struct.in6_addr = type { %union.anon.8 }
%union.anon.8 = type { [4 x i32] }

@evthread_lock_fns_ = external global %struct.evthread_lock_callbacks, align 8

; Function Attrs: nounwind uwtable
define void @bufferevent_incref(ptr noundef %0) #0 {
  %2 = alloca ptr, align 8
  %3 = alloca ptr, align 8
  %4 = alloca ptr, align 8
  %5 = alloca ptr, align 8
  store ptr %0, ptr %2, align 8
  call void @llvm.lifetime.start.p0(i64 8, ptr %3) #7
  %6 = load ptr, ptr %2, align 8
  %7 = getelementptr inbounds i8, ptr %6, i64 0
  store ptr %7, ptr %3, align 8
  br label %8

8:                                                ; preds = %1
  call void @llvm.lifetime.start.p0(i64 8, ptr %4) #7
  %9 = load ptr, ptr %2, align 8
  %10 = getelementptr inbounds i8, ptr %9, i64 0
  store ptr %10, ptr %4, align 8
  br label %11

11:                                               ; preds = %8
  %12 = load ptr, ptr %4, align 8
  %13 = getelementptr inbounds nuw %struct.bufferevent_private, ptr %12, i32 0, i32 11
  %14 = load ptr, ptr %13, align 8
  %15 = icmp ne ptr %14, null
  br i1 %15, label %16, label %22

16:                                               ; preds = %11
  %17 = load ptr, ptr getelementptr inbounds nuw (%struct.evthread_lock_callbacks, ptr @evthread_lock_fns_, i32 0, i32 4), align 8
  %18 = load ptr, ptr %4, align 8
  %19 = getelementptr inbounds nuw %struct.bufferevent_private, ptr %18, i32 0, i32 11
  %20 = load ptr, ptr %19, align 8
  %21 = call i32 %17(i32 noundef 0, ptr noundef %20)
  br label %22

22:                                               ; preds = %16, %11
  br label %23

23:                                               ; preds = %22
  br label %24

24:                                               ; preds = %23
  call void @llvm.lifetime.end.p0(i64 8, ptr %4) #7
  br label %25

25:                                               ; preds = %24
  br label %26

26:                                               ; preds = %25
  %27 = load ptr, ptr %3, align 8
  %28 = getelementptr inbounds nuw %struct.bufferevent_private, ptr %27, i32 0, i32 10
  %29 = load i32, ptr %28, align 4
  %30 = add nsw i32 %29, 1
  store i32 %30, ptr %28, align 4
  br label %31

31:                                               ; preds = %26
  call void @llvm.lifetime.start.p0(i64 8, ptr %5) #7
  %32 = load ptr, ptr %2, align 8
  %33 = getelementptr inbounds i8, ptr %32, i64 0
  store ptr %33, ptr %5, align 8
  br label %34

34:                                               ; preds = %31
  %35 = load ptr, ptr %5, align 8
  %36 = getelementptr inbounds nuw %struct.bufferevent_private, ptr %35, i32 0, i32 11
  %37 = load ptr, ptr %36, align 8
  %38 = icmp ne ptr %37, null
  br i1 %38, label %39, label %45

39:                                               ; preds = %34
  %40 = load ptr, ptr getelementptr inbounds nuw (%struct.evthread_lock_callbacks, ptr @evthread_lock_fns_, i32 0, i32 5), align 8
  %41 = load ptr, ptr %5, align 8
  %42 = getelementptr inbounds nuw %struct.bufferevent_private, ptr %41, i32 0, i32 11
  %43 = load ptr, ptr %42, align 8
  %44 = call i32 %40(i32 noundef 0, ptr noundef %43)
  br label %45

45:                                               ; preds = %39, %34
  br label %46

46:                                               ; preds = %45
  br label %47

47:                                               ; preds = %46
  call void @llvm.lifetime.end.p0(i64 8, ptr %5) #7
  br label %48

48:                                               ; preds = %47
  br label %49

49:                                               ; preds = %48
  call void @llvm.lifetime.end.p0(i64 8, ptr %3) #7
  ret void
}