; Function Attrs: nounwind uwtable
define void @bufferevent_incref(ptr noundef captures(none) %0) local_unnamed_addr #0 {
  %2 = getelementptr inbounds nuw i8, ptr %0, i64 448
  %3 = load ptr, ptr %2, align 8
  %.not = icmp eq ptr %3, null
  br i1 %.not, label %.thread, label %7

.thread:                                          ; preds = %1
  %4 = getelementptr inbounds nuw i8, ptr %0, i64 444
  %5 = load i32, ptr %4, align 4
  %6 = add nsw i32 %5, 1
  store i32 %6, ptr %4, align 4
  br label %16

7:                                                ; preds = %1
  %8 = load ptr, ptr getelementptr inbounds nuw (i8, ptr @evthread_lock_fns_, i64 24), align 8
  %9 = tail call i32 %8(i32 noundef 0, ptr noundef nonnull %3) #7
  %.pr = load ptr, ptr %2, align 8
  %10 = getelementptr inbounds nuw i8, ptr %0, i64 444
  %11 = load i32, ptr %10, align 4
  %12 = add nsw i32 %11, 1
  store i32 %12, ptr %10, align 4
  %.not9 = icmp eq ptr %.pr, null
  br i1 %.not9, label %16, label %13

13:                                               ; preds = %7
  %14 = load ptr, ptr getelementptr inbounds nuw (i8, ptr @evthread_lock_fns_, i64 32), align 8
  %15 = tail call i32 %14(i32 noundef 0, ptr noundef nonnull %.pr) #7
  br label %16

16:                                               ; preds = %.thread, %13, %7
  ret void
}